; Function Attrs: nounwind uwtable
define dso_local i64 @compute_partition_hash_value(i32 noundef %0, ptr noundef %1, ptr noundef readonly captures(none) %2, ptr noundef readonly captures(none) %3, ptr noundef readonly captures(none) %4) local_unnamed_addr #0 {
  %6 = icmp sgt i32 %0, 0
  br i1 %6, label %.lr.ph.preheader, label %._crit_edge

.lr.ph.preheader:                                 ; preds = %5
  %wide.trip.count = zext nneg i32 %0 to i64
  br label %.lr.ph

.lr.ph:                                           ; preds = %.lr.ph.preheader, %23
  %indvars.iv = phi i64 [ 0, %.lr.ph.preheader ], [ %indvars.iv.next, %23 ]
  %.01415 = phi i64 [ 0, %.lr.ph.preheader ], [ %.1, %23 ]
  %7 = getelementptr inbounds nuw i8, ptr %4, i64 %indvars.iv
  %8 = load i8, ptr %7, align 1, !range !6, !noundef !7
  %9 = trunc nuw i8 %8 to i1
  br i1 %9, label %23, label %10

10:                                               ; preds = %.lr.ph
  %11 = getelementptr inbounds nuw %struct.FmgrInfo, ptr %1, i64 %indvars.iv
  %12 = getelementptr inbounds nuw i32, ptr %2, i64 %indvars.iv
  %13 = load i32, ptr %12, align 4
  %14 = getelementptr inbounds nuw i64, ptr %3, i64 %indvars.iv
  %15 = load i64, ptr %14, align 8
  %16 = tail call i64 @FunctionCall2Coll(ptr noundef %11, i32 noundef %13, i64 noundef %15, i64 noundef 8816678312871386365) #12
  %17 = shl i64 %.01415, 54
  %18 = lshr i64 %.01415, 7
  %19 = add i64 %17, 5305509591434766563
  %20 = add i64 %19, %18
  %21 = add i64 %20, %16
  %22 = xor i64 %21, %.01415
  br label %23

23:                                               ; preds = %.lr.ph, %10
  %.1 = phi i64 [ %.01415, %.lr.ph ], [ %22, %10 ]
  %indvars.iv.next = add nuw nsw i64 %indvars.iv, 1
  %exitcond.not = icmp eq i64 %indvars.iv.next, %wide.trip.count
  br i1 %exitcond.not, label %._crit_edge, label %.lr.ph, !llvm.loop !49

._crit_edge:                                      ; preds = %23, %5
  %.014.lcssa = phi i64 [ 0, %5 ], [ %.1, %23 ]
  ret i64 %.014.lcssa
}